; Function Attrs: nounwind uwtable
define ptr @l_Lean_Compiler_LCNF_Testing_assertIsAtFixPoint(ptr noundef %0) local_unnamed_addr #0 {
  %2 = load ptr, ptr @l_Lean_Compiler_LCNF_Testing_assertIsAtFixPoint___closed__2, align 8, !tbaa !7
  %3 = getelementptr inbounds nuw i8, ptr %0, i64 8
  %4 = load ptr, ptr %3, align 8, !tbaa !7
  %5 = ptrtoint ptr %4 to i64
  %6 = and i64 %5, 1
  %.not.i = icmp eq i64 %6, 0
  br i1 %.not.i, label %7, label %lean_inc.exit.i

7:                                                ; preds = %1
  %.val.i.i = load i32, ptr %4, align 4, !tbaa !9
  %8 = icmp sgt i32 %.val.i.i, 0
  br i1 %8, label %9, label %11, !prof !12

9:                                                ; preds = %7
  %10 = add nuw i32 %.val.i.i, 1
  store i32 %10, ptr %4, align 4, !tbaa !9
  br label %lean_inc.exit.i

11:                                               ; preds = %7
  %.not.i.i = icmp eq i32 %.val.i.i, 0
  br i1 %.not.i.i, label %lean_inc.exit.i, label %12

12:                                               ; preds = %11
  tail call void @lean_inc_ref_cold(ptr noundef nonnull %4) #5
  br label %lean_inc.exit.i

lean_inc.exit.i:                                  ; preds = %12, %11, %9, %1
  tail call void @lean_inc_heartbeat() #5
  %13 = tail call noalias ptr @mi_malloc_small(i64 noundef 40) #5
  %14 = icmp eq ptr %13, null
  br i1 %14, label %15, label %l_Lean_Compiler_LCNF_Testing_assertAfterEachOccurrence.exit

15:                                               ; preds = %lean_inc.exit.i
  tail call void @lean_internal_panic_out_of_memory() #6
  unreachable

l_Lean_Compiler_LCNF_Testing_assertAfterEachOccurrence.exit: ; preds = %lean_inc.exit.i
  %16 = getelementptr inbounds nuw i8, ptr %13, i64 4
  store i32 1, ptr %13, align 4, !tbaa !9
  store i32 -184549336, ptr %16, align 4
  %17 = getelementptr inbounds nuw i8, ptr %13, i64 8
  store ptr @l___private_Lean_Compiler_LCNF_Testing_0__Lean_Compiler_LCNF_Testing_assertAfterTest, ptr %17, align 8, !tbaa !7
  %18 = getelementptr inbounds nuw i8, ptr %13, i64 16
  store i16 3, ptr %18, align 8, !tbaa !15
  %19 = getelementptr inbounds nuw i8, ptr %13, i64 18
  store i16 2, ptr %19, align 2, !tbaa !15
  %20 = getelementptr inbounds nuw i8, ptr %13, i64 24
  store ptr %2, ptr %20, align 8, !tbaa !7
  %21 = getelementptr inbounds nuw i8, ptr %13, i64 32
  store ptr %0, ptr %21, align 8, !tbaa !7
  %22 = tail call ptr @l_Lean_Compiler_LCNF_PassInstaller_installAfterEach(ptr noundef %4, ptr noundef nonnull %13) #5
  ret ptr %22
}